; ModuleID = '40/1678.c'
source_filename = "40/1678.c"
target datalayout = "e-m:e-p270:32:32-p271:32:32-p272:64:64-i64:64-f80:128-n8:16:32:64-S128"
target triple = "x86_64-pc-linux-gnu"

@.str = private unnamed_addr constant [15 x i8] c"%f %f %f %f %f\00", align 1
@.str.1 = private unnamed_addr constant [6 x i8] c"%.4f\0A\00", align 1
@.str.2 = private unnamed_addr constant [15 x i8] c"Invalid input\0A\00", align 1

; Function Attrs: noinline nounwind uwtable
define dso_local float @sss(float %0, float %1, float %2, float %3, float %4) #0 {
  %6 = alloca float, align 4
  %7 = alloca float, align 4
  %8 = alloca float, align 4
  %9 = alloca float, align 4
  %10 = alloca float, align 4
  %11 = alloca float, align 4
  store float %0, float* %6, align 4
  store float %1, float* %7, align 4
  store float %2, float* %8, align 4
  store float %3, float* %9, align 4
  store float %4, float* %10, align 4
  %12 = load float, float* %6, align 4
  %13 = load float, float* %7, align 4
  %14 = fadd float %12, %13
  %15 = load float, float* %8, align 4
  %16 = fadd float %14, %15
  %17 = load float, float* %9, align 4
  %18 = fadd float %16, %17
  %19 = fdiv float %18, 2.000000e+00
  store float %19, float* %11, align 4
  %20 = load float, float* %11, align 4
  %21 = load float, float* %6, align 4
  %22 = fsub float %20, %21
  %23 = load float, float* %11, align 4
  %24 = load float, float* %7, align 4
  %25 = fsub float %23, %24
  %26 = fmul float %22, %25
  %27 = load float, float* %11, align 4
  %28 = load float, float* %8, align 4
  %29 = fsub float %27, %28
  %30 = fmul float %26, %29
  %31 = load float, float* %11, align 4
  %32 = load float, float* %9, align 4
  %33 = fsub float %31, %32
  %34 = fmul float %30, %33
  %35 = fpext float %34 to double
  %36 = load float, float* %6, align 4
  %37 = load float, float* %7, align 4
  %38 = fmul float %36, %37
  %39 = load float, float* %8, align 4
  %40 = fmul float %38, %39
  %41 = load float, float* %9, align 4
  %42 = fmul float %40, %41
  %43 = fpext float %42 to double
  %44 = load float, float* %10, align 4
  %45 = fdiv float %44, 1.800000e+02
  %46 = fpext float %45 to double
  %47 = fmul double %46, 0x400921FB4D12D84A
  %48 = fdiv double %47, 2.000000e+00
  %49 = call double @cos(double %48) #3
  %50 = fmul double %43, %49
  %51 = load float, float* %10, align 4
  %52 = fdiv float %51, 1.800000e+02
  %53 = fpext float %52 to double
  %54 = fmul double %53, 0x400921FB4D12D84A
  %55 = fdiv double %54, 2.000000e+00
  %56 = call double @cos(double %55) #3
  %57 = fmul double %50, %56
  %58 = fsub double %35, %57
  %59 = call double @sqrt(double %58) #3
  %60 = fptrunc double %59 to float
  ret float %60
}

; Function Attrs: nounwind
declare dso_local double @sqrt(double) #1

; Function Attrs: nounwind
declare dso_local double @cos(double) #1

; Function Attrs: noinline nounwind uwtable
define dso_local i32 @main() #0 {
  %1 = alloca i32, align 4
  %2 = alloca float, align 4
  %3 = alloca float, align 4
  %4 = alloca float, align 4
  %5 = alloca float, align 4
  %6 = alloca float, align 4
  %7 = alloca float, align 4
  store i32 0, i32* %1, align 4
  %8 = call i32 (i8*, ...) @__isoc99_scanf(i8* getelementptr inbounds ([15 x i8], [15 x i8]* @.str, i64 0, i64 0), float* %2, float* %3, float* %4, float* %5, float* %6)
  %9 = load float, float* %2, align 4
  %10 = load float, float* %3, align 4
  %11 = load float, float* %4, align 4
  %12 = load float, float* %5, align 4
  %13 = load float, float* %6, align 4
  %14 = call float @sss(float %9, float %10, float %11, float %12, float %13)
  store float %14, float* %7, align 4
  %15 = load float, float* %7, align 4
  %16 = fcmp ogt float %15, 0.000000e+00
  br i1 %16, label %17, label %21

17:                                               ; preds = %0
  %18 = load float, float* %7, align 4
  %19 = fpext float %18 to double
  %20 = call i32 (i8*, ...) @printf(i8* getelementptr inbounds ([6 x i8], [6 x i8]* @.str.1, i64 0, i64 0), double %19)
  br label %23

21:                                               ; preds = %0
  %22 = call i32 (i8*, ...) @printf(i8* getelementptr inbounds ([15 x i8], [15 x i8]* @.str.2, i64 0, i64 0))
  br label %23

23:                                               ; preds = %21, %17
  ret i32 0
}

declare dso_local i32 @__isoc99_scanf(i8*, ...) #2

declare dso_local i32 @printf(i8*, ...) #2


!llvm.module.flags = !{!0}
!llvm.ident = !{!1}

!0 = !{i32 1, !"wchar_size", i32 4}
!1 = !{!"clang version 10.0.0-4ubuntu1 "}
