; ModuleID = 'source-C-CXX/39/1678.c'
source_filename = "source-C-CXX/39/1678.c"
target datalayout = "e-m:e-p270:32:32-p271:32:32-p272:64:64-i64:64-f80:128-n8:16:32:64-S128"
target triple = "x86_64-pc-linux-gnu"

@.str = private unnamed_addr constant [15 x i8] c"%f %f %f %f %f\00", align 1
@.str.1 = private unnamed_addr constant [6 x i8] c"%.4f\0A\00", align 1
@str = private unnamed_addr constant [14 x i8] c"Invalid input\00", align 1

; Function Attrs: mustprogress nofree nounwind sspstrong uwtable willreturn
define dso_local float @sss(float %0, float %1, float %2, float %3, float %4) local_unnamed_addr #0 {
  %6 = fadd float %0, %1
  %7 = fadd float %6, %2
  %8 = fadd float %7, %3
  %9 = fmul float %8, 5.000000e-01
  %10 = fsub float %9, %0
  %11 = fsub float %9, %1
  %12 = fmul float %10, %11
  %13 = fsub float %9, %2
  %14 = fmul float %13, %12
  %15 = fsub float %9, %3
  %16 = fmul float %15, %14
  %17 = fpext float %16 to double
  %18 = fmul float %0, %1
  %19 = fmul float %18, %2
  %20 = fmul float %19, %3
  %21 = fpext float %20 to double
  %22 = fdiv float %4, 1.800000e+02
  %23 = fpext float %22 to double
  %24 = fmul double %23, 0x400921FB4D12D84A
  %25 = fmul double %24, 5.000000e-01
  %26 = tail call double @cos(double %25) #6
  %27 = fmul double %26, %21
  %28 = tail call double @cos(double %25) #6
  %29 = fmul double %27, %28
  %30 = fsub double %17, %29
  %31 = tail call double @sqrt(double %30) #6
  %32 = fptrunc double %31 to float
  ret float %32
}

; Function Attrs: argmemonly mustprogress nofree nosync nounwind willreturn
declare void @llvm.lifetime.start.p0i8(i64 immarg, i8* nocapture) #1

; Function Attrs: mustprogress nofree nounwind willreturn
declare double @sqrt(double) local_unnamed_addr #2

; Function Attrs: mustprogress nofree nounwind willreturn
declare double @cos(double) local_unnamed_addr #2

; Function Attrs: argmemonly mustprogress nofree nosync nounwind willreturn
declare void @llvm.lifetime.end.p0i8(i64 immarg, i8* nocapture) #1

; Function Attrs: nofree nounwind sspstrong uwtable
define dso_local i32 @main() local_unnamed_addr #3 {
  %1 = alloca float, align 4
  %2 = alloca float, align 4
  %3 = alloca float, align 4
  %4 = alloca float, align 4
  %5 = alloca float, align 4
  %6 = bitcast float* %1 to i8*
  call void @llvm.lifetime.start.p0i8(i64 4, i8* nonnull %6) #6
  %7 = bitcast float* %2 to i8*
  call void @llvm.lifetime.start.p0i8(i64 4, i8* nonnull %7) #6
  %8 = bitcast float* %3 to i8*
  call void @llvm.lifetime.start.p0i8(i64 4, i8* nonnull %8) #6
  %9 = bitcast float* %4 to i8*
  call void @llvm.lifetime.start.p0i8(i64 4, i8* nonnull %9) #6
  %10 = bitcast float* %5 to i8*
  call void @llvm.lifetime.start.p0i8(i64 4, i8* nonnull %10) #6
  %11 = call i32 (i8*, ...) @__isoc99_scanf(i8* getelementptr inbounds ([15 x i8], [15 x i8]* @.str, i64 0, i64 0), float* nonnull %1, float* nonnull %2, float* nonnull %3, float* nonnull %4, float* nonnull %5)
  %12 = load float, float* %1, align 4, !tbaa !5
  %13 = load float, float* %2, align 4, !tbaa !5
  %14 = load float, float* %3, align 4, !tbaa !5
  %15 = load float, float* %4, align 4, !tbaa !5
  %16 = load float, float* %5, align 4, !tbaa !5
  %17 = fadd float %12, %13
  %18 = fadd float %17, %14
  %19 = fadd float %18, %15
  %20 = fmul float %19, 5.000000e-01
  %21 = fsub float %20, %12
  %22 = fsub float %20, %13
  %23 = fmul float %21, %22
  %24 = fsub float %20, %14
  %25 = fmul float %24, %23
  %26 = fsub float %20, %15
  %27 = fmul float %26, %25
  %28 = fpext float %27 to double
  %29 = fmul float %12, %13
  %30 = fmul float %29, %14
  %31 = fmul float %30, %15
  %32 = fpext float %31 to double
  %33 = fdiv float %16, 1.800000e+02
  %34 = fpext float %33 to double
  %35 = fmul double %34, 0x400921FB4D12D84A
  %36 = fmul double %35, 5.000000e-01
  %37 = call double @cos(double %36) #6
  %38 = fmul double %37, %32
  %39 = call double @cos(double %36) #6
  %40 = fmul double %38, %39
  %41 = fsub double %28, %40
  %42 = call double @sqrt(double %41) #6
  %43 = fptrunc double %42 to float
  %44 = fcmp ogt float %43, 0.000000e+00
  br i1 %44, label %45, label %48

45:                                               ; preds = %0
  %46 = fpext float %43 to double
  %47 = call i32 (i8*, ...) @printf(i8* nonnull dereferenceable(1) getelementptr inbounds ([6 x i8], [6 x i8]* @.str.1, i64 0, i64 0), double %46)
  br label %50

48:                                               ; preds = %0
  %49 = call i32 @puts(i8* nonnull dereferenceable(1) getelementptr inbounds ([14 x i8], [14 x i8]* @str, i64 0, i64 0))
  br label %50

50:                                               ; preds = %48, %45
  call void @llvm.lifetime.end.p0i8(i64 4, i8* nonnull %10) #6
  call void @llvm.lifetime.end.p0i8(i64 4, i8* nonnull %9) #6
  call void @llvm.lifetime.end.p0i8(i64 4, i8* nonnull %8) #6
  call void @llvm.lifetime.end.p0i8(i64 4, i8* nonnull %7) #6
  call void @llvm.lifetime.end.p0i8(i64 4, i8* nonnull %6) #6
  ret i32 0
}

; Function Attrs: nofree nounwind
declare noundef i32 @__isoc99_scanf(i8* nocapture noundef readonly, ...) local_unnamed_addr #4

; Function Attrs: nofree nounwind
declare noundef i32 @printf(i8* nocapture noundef readonly, ...) local_unnamed_addr #4

; Function Attrs: nofree nounwind
declare noundef i32 @puts(i8* nocapture noundef readonly) local_unnamed_addr #5


!llvm.module.flags = !{!0, !1, !2, !3}
!llvm.ident = !{!4}

!0 = !{i32 1, !"wchar_size", i32 4}
!1 = !{i32 7, !"PIC Level", i32 2}
!2 = !{i32 7, !"PIE Level", i32 2}
!3 = !{i32 7, !"uwtable", i32 1}
!4 = !{!"clang version 13.0.0"}
!5 = !{!6, !6, i64 0}
!6 = !{!"float", !7, i64 0}
!7 = !{!"omnipotent char", !8, i64 0}
!8 = !{!"Simple C/C++ TBAA"}
